; ModuleID = 'bench/linux/original/intel_gt_engines_debugfs.ll'
source_filename = "bench/linux/original/intel_gt_engines_debugfs.ll"
target datalayout = "e-m:e-p270:32:32-p271:32:32-p272:64:64-i64:64-i128:128-f80:128-n8:16:32:64-S128"
target triple = "x86_64-unknown-linux-gnu"

%struct.intel_gt_debugfs_file = type { ptr, ptr, ptr }
%struct.file_operations = type { ptr, ptr, ptr, ptr, ptr, ptr, ptr, ptr, ptr, ptr, ptr, ptr, i64, ptr, ptr, ptr, ptr, ptr, ptr, ptr, ptr, ptr, ptr, ptr, ptr, ptr, ptr, ptr, ptr, ptr, ptr, ptr, ptr }
%struct.drm_printer = type { ptr, ptr, ptr, ptr }

@intel_gt_engines_debugfs_register.files = internal constant [1 x %struct.intel_gt_debugfs_file] [%struct.intel_gt_debugfs_file { ptr @.str, ptr @engines_fops, ptr null }], align 16
@.str = private unnamed_addr constant [8 x i8] c"engines\00", align 1
@engines_fops = internal constant %struct.file_operations { ptr null, ptr @seq_lseek, ptr @seq_read, ptr null, ptr null, ptr null, ptr null, ptr null, ptr null, ptr null, ptr null, ptr null, i64 0, ptr @engines_open, ptr null, ptr @single_release, ptr null, ptr null, ptr null, ptr null, ptr null, ptr null, ptr null, ptr null, ptr null, ptr null, ptr null, ptr null, ptr null, ptr null, ptr null, ptr null, ptr null }, align 8
@.str.1 = private unnamed_addr constant [4 x i8] c"%s\0A\00", align 1

; Function Attrs: fn_ret_thunk_extern nounwind null_pointer_is_valid
define dso_local void @intel_gt_engines_debugfs_register(ptr noundef %0, ptr noundef %1) local_unnamed_addr #0 align 16 {
  tail call void @intel_gt_debugfs_register_files(ptr noundef %1, ptr noundef nonnull @intel_gt_engines_debugfs_register.files, i64 noundef 1, ptr noundef %0) #3
  ret void
}

; Function Attrs: null_pointer_is_valid
declare dso_local void @intel_gt_debugfs_register_files(ptr noundef, ptr noundef, i64 noundef, ptr noundef) local_unnamed_addr #1

; Function Attrs: null_pointer_is_valid
declare dso_local i64 @seq_lseek(ptr noundef, i64 noundef, i32 noundef) #1

; Function Attrs: null_pointer_is_valid
declare dso_local i64 @seq_read(ptr noundef, ptr noundef, i64 noundef, ptr noundef) #1

; Function Attrs: fn_ret_thunk_extern nounwind null_pointer_is_valid
define internal i32 @engines_open(ptr nocapture noundef readonly %0, ptr noundef %1) #0 align 16 {
  %3 = getelementptr inbounds i8, ptr %0, i64 592
  %4 = load ptr, ptr %3, align 8
  %5 = tail call i32 @single_open(ptr noundef %1, ptr noundef nonnull @engines_show, ptr noundef %4) #3
  ret i32 %5
}

; Function Attrs: null_pointer_is_valid
declare dso_local i32 @single_release(ptr noundef, ptr noundef) #1

; Function Attrs: null_pointer_is_valid
declare dso_local i32 @single_open(ptr noundef, ptr noundef, ptr noundef) local_unnamed_addr #1

; Function Attrs: fn_ret_thunk_extern nounwind null_pointer_is_valid
define internal noundef i32 @engines_show(ptr noundef %0, ptr nocapture readnone %1) #0 align 16 {
  %3 = alloca %struct.drm_printer, align 8
  %4 = getelementptr inbounds i8, ptr %0, i64 112
  %5 = load ptr, ptr %4, align 8
  call void @llvm.lifetime.start.p0(i64 32, ptr nonnull %3) #3
  store ptr @__drm_printfn_seq_file, ptr %3, align 8
  %6 = getelementptr inbounds i8, ptr %3, i64 8
  store ptr @__drm_puts_seq_file, ptr %6, align 8
  %7 = getelementptr inbounds i8, ptr %3, i64 16
  store ptr %0, ptr %7, align 8
  %8 = getelementptr inbounds i8, ptr %3, i64 24
  store ptr null, ptr %8, align 8
  %9 = getelementptr inbounds i8, ptr %5, i64 4040
  br label %10

10:                                               ; preds = %17, %2
  %11 = phi i64 [ 0, %2 ], [ %18, %17 ]
  %12 = getelementptr [27 x ptr], ptr %9, i64 0, i64 %11
  %13 = load ptr, ptr %12, align 8
  %14 = icmp eq ptr %13, null
  br i1 %14, label %17, label %15

15:                                               ; preds = %10
  %16 = getelementptr inbounds i8, ptr %13, i64 24
  call void (ptr, ptr, ptr, ...) @intel_engine_dump(ptr noundef nonnull %13, ptr noundef nonnull %3, ptr noundef nonnull @.str.1, ptr noundef %16) #3
  br label %17

17:                                               ; preds = %15, %10
  %18 = add nuw nsw i64 %11, 1
  %19 = icmp eq i64 %18, 27
  br i1 %19, label %20, label %10, !llvm.loop !5

20:                                               ; preds = %17
  call void @llvm.lifetime.end.p0(i64 32, ptr nonnull %3) #3
  ret i32 0
}

; Function Attrs: mustprogress nocallback nofree nosync nounwind willreturn memory(argmem: readwrite)
declare void @llvm.lifetime.start.p0(i64 immarg, ptr nocapture) #2

; Function Attrs: mustprogress nocallback nofree nosync nounwind willreturn memory(argmem: readwrite)
declare void @llvm.lifetime.end.p0(i64 immarg, ptr nocapture) #2

; Function Attrs: null_pointer_is_valid
declare dso_local void @intel_engine_dump(ptr noundef, ptr noundef, ptr noundef, ...) local_unnamed_addr #1

; Function Attrs: null_pointer_is_valid
declare dso_local void @__drm_printfn_seq_file(ptr noundef, ptr noundef) #1

; Function Attrs: null_pointer_is_valid
declare dso_local void @__drm_puts_seq_file(ptr noundef, ptr noundef) #1


!llvm.module.flags = !{!0, !1, !2, !3, !4}

!0 = !{i32 1, !"wchar_size", i32 2}
!1 = !{i32 8, !"cf-protection-branch", i32 1}
!2 = !{i32 4, !"function_return_thunk_extern", i32 1}
!3 = !{i32 4, !"indirect_branch_cs_prefix", i32 1}
!4 = !{i32 4, !"SkipRaxSetup", i32 1}
!5 = distinct !{!5, !6, !7}
!6 = !{!"llvm.loop.mustprogress"}
!7 = !{!"llvm.loop.unroll.disable"}
